; Function Attrs: nounwind uwtable
define internal void @recff_math_atan2(ptr noundef %0, ptr readnone captures(none) %1) #0 {
  %3 = getelementptr inbounds nuw i8, ptr %0, i64 160
  %4 = load ptr, ptr %3, align 8, !tbaa !37
  %5 = load i32, ptr %4, align 4, !tbaa !39
  %6 = tail call i32 @lj_ir_tonum(ptr noundef %0, i32 noundef %5) #9
  %7 = load ptr, ptr %3, align 8, !tbaa !37
  %8 = getelementptr inbounds nuw i8, ptr %7, i64 4
  %9 = load i32, ptr %8, align 4, !tbaa !39
  %10 = tail call i32 @lj_ir_tonum(ptr noundef %0, i32 noundef %9) #9
  %11 = tail call i32 (ptr, i32, ...) @lj_ir_call(ptr noundef %0, i32 noundef 66, i32 noundef %6, i32 noundef %10) #9
  %12 = load ptr, ptr %3, align 8, !tbaa !37
  store i32 %11, ptr %12, align 4, !tbaa !39
  ret void
}